; Function Attrs: nounwind uwtable
define noundef i32 @trav_info_visit_lnk(ptr noundef readonly captures(none) %0, ptr noundef readonly captures(none) %1, ptr noundef captures(address_is_null) %2) #1 {
  %4 = load i32, ptr %1, align 8, !tbaa !32
  %5 = icmp eq i32 %4, 1
  %6 = select i1 %5, i32 3, i32 4
  %.not.i = icmp eq ptr %2, null
  br i1 %.not.i, label %trav_info_add.exit, label %7

7:                                                ; preds = %3
  %8 = getelementptr inbounds nuw i8, ptr %2, i64 8
  %9 = load i64, ptr %8, align 8, !tbaa !7
  %10 = load i64, ptr %2, align 8, !tbaa !16
  %11 = icmp eq i64 %9, %10
  br i1 %11, label %12, label %._crit_edge.i

._crit_edge.i:                                    ; preds = %7
  %.phi.trans.insert.i = getelementptr inbounds nuw i8, ptr %2, i64 32
  %.pre21.i = load ptr, ptr %.phi.trans.insert.i, align 8, !tbaa !17
  br label %18

12:                                               ; preds = %7
  %13 = shl i64 %9, 1
  %spec.select.i = tail call i64 @llvm.umax.i64(i64 %13, i64 1)
  store i64 %spec.select.i, ptr %2, align 8, !tbaa !16
  %14 = getelementptr inbounds nuw i8, ptr %2, i64 32
  %15 = load ptr, ptr %14, align 8, !tbaa !17
  %16 = mul i64 %spec.select.i, 40
  %17 = tail call ptr @realloc(ptr noundef %15, i64 noundef %16) #17
  store ptr %17, ptr %14, align 8, !tbaa !17
  %.pre.i = load i64, ptr %8, align 8, !tbaa !7
  br label %18

18:                                               ; preds = %12, %._crit_edge.i
  %19 = phi ptr [ %17, %12 ], [ %.pre21.i, %._crit_edge.i ]
  %20 = phi i64 [ %.pre.i, %12 ], [ %9, %._crit_edge.i ]
  %21 = add i64 %20, 1
  store i64 %21, ptr %8, align 8, !tbaa !7
  %22 = tail call noalias ptr @strdup(ptr noundef readonly %0) #18
  %23 = getelementptr inbounds nuw %struct.trav_path_t, ptr %19, i64 %20
  store ptr %22, ptr %23, align 8, !tbaa !18
  %24 = getelementptr inbounds nuw %struct.trav_path_t, ptr %19, i64 %20, i32 1
  store i32 %6, ptr %24, align 8, !tbaa !21
  %25 = getelementptr inbounds nuw %struct.trav_path_t, ptr %19, i64 %20, i32 3
  store i64 0, ptr %25, align 8, !tbaa !22
  %26 = getelementptr inbounds nuw %struct.trav_path_t, ptr %19, i64 %20, i32 2
  %27 = load i8, ptr @H5_libinit_g, align 1, !tbaa !23, !range !24, !noundef !25
  %28 = trunc nuw i8 %27 to i1
  %29 = load i8, ptr @H5_libterm_g, align 1, !range !24
  %30 = trunc nuw i8 %29 to i1
  %31 = select i1 %28, i1 true, i1 %30
  br i1 %31, label %34, label %32, !prof !26

32:                                               ; preds = %18
  %33 = tail call i32 @H5open() #18
  br label %34

34:                                               ; preds = %32, %18
  tail call void @llvm.memcpy.p0.p0.i64(ptr noundef nonnull align 4 dereferenceable(16) %26, ptr noundef nonnull align 1 dereferenceable(16) @H5O_TOKEN_UNDEF_g, i64 16, i1 false), !tbaa.struct !27
  br label %trav_info_add.exit

trav_info_add.exit:                               ; preds = %3, %34
  ret i32 0
}